target datalayout = "e-m:e-p270:32:32-p271:32:32-p272:64:64-i64:64-i128:128-f80:128-n8:16:32:64-S128"
target triple = "x86_64-pc-linux-gnu"

%struct.AvifInfoInternalForward = type { ptr, i64 }

; Function Attrs: nounwind uwtable
define hidden i32 @AvifInfoGetFeatures(ptr noundef %0, i64 noundef %1, ptr noundef %2) #0 {
  %4 = alloca ptr, align 8
  %5 = alloca i64, align 8
  %6 = alloca ptr, align 8
  %7 = alloca %struct.AvifInfoInternalForward, align 8
  store ptr %0, ptr %4, align 8
  store i64 %1, ptr %5, align 8
  store ptr %2, ptr %6, align 8
  %8 = load ptr, ptr %4, align 8
  %9 = getelementptr inbounds %struct.AvifInfoInternalForward, ptr %7, i32 0, i32 0
  store ptr %8, ptr %9, align 8
  %10 = load i64, ptr %5, align 8
  %11 = getelementptr inbounds %struct.AvifInfoInternalForward, ptr %7, i32 0, i32 1
  store i64 %10, ptr %11, align 8
  %12 = load ptr, ptr %4, align 8
  %13 = icmp eq ptr %12, null
  %14 = select i1 %13, ptr null, ptr @AvifInfoInternalForwardRead
  %15 = load ptr, ptr %6, align 8
  %16 = call i32 @AvifInfoGetFeaturesStream(ptr noundef %7, ptr noundef %14, ptr noundef @AvifInfoInternalForwardSkip, ptr noundef %15)
  ret i32 %16
}