; Function Attrs: nounwind uwtable
define hidden i32 @AvifInfoGetFeatures(ptr noundef %0, i64 noundef %1, ptr noundef %2) local_unnamed_addr #0 {
  %4 = alloca %struct.AvifInfoInternalForward, align 8
  store ptr %0, ptr %4, align 8
  %5 = getelementptr inbounds i8, ptr %4, i64 8
  store i64 %1, ptr %5, align 8
  %6 = icmp eq ptr %0, null
  %7 = select i1 %6, ptr null, ptr @AvifInfoInternalForwardRead
  %8 = call i32 @AvifInfoGetFeaturesStream(ptr noundef nonnull %4, ptr noundef %7, ptr noundef nonnull @AvifInfoInternalForwardSkip, ptr noundef %2), !range !5
  ret i32 %8
}